; Function Attrs: mustprogress nofree norecurse nosync nounwind willreturn memory(read, inaccessiblemem: none) uwtable
define float @Mio_LibraryReadAreaNand2(ptr noundef readonly captures(none) %0) local_unnamed_addr #1 {
  %2 = getelementptr inbounds nuw i8, ptr %0, i64 72
  %3 = load ptr, ptr %2, align 8, !tbaa !30
  %.not = icmp eq ptr %3, null
  br i1 %.not, label %8, label %4

4:                                                ; preds = %1
  %5 = getelementptr inbounds nuw i8, ptr %3, i64 8
  %6 = load double, ptr %5, align 8, !tbaa !43
  %7 = fptrunc double %6 to float
  br label %8

8:                                                ; preds = %1, %4
  %9 = phi float [ %7, %4 ], [ 0.000000e+00, %1 ]
  ret float %9
}